ccopy_reg
_reconstructor
p0
(cdedupe.datamodel
DataModel
p1
c__builtin__
object
p2
Ntp3
Rp4
(dp5
S'primary_fields'
p6
(lp7
g0
(cdedupe.variables.string
StringType
p8
g2
Ntp9
Rp10
(dp11
S'predicates'
p12
(lp13
g0
(cdedupe.predicates
StringPredicate
p14
g2
Ntp15
Rp16
(dp17
S'_cached_hash'
p18
I-1244309029259457793
sS'__name__'
p19
V(wholeFieldPredicate, schema:name)
p20
sS'func'
p21
cdedupe.predicates
wholeFieldPredicate
p22
sS'field'
p23
Vschema:name
p24
sbag0
(g14
g2
Ntp25
Rp26
(dp27
g18
I-2842409103556837595
sg19
V(firstTokenPredicate, schema:name)
p28
sg21
cdedupe.predicates
firstTokenPredicate
p29
sg23
g24
sbag0
(g14
g2
Ntp30
Rp31
(dp32
g18
I6694999927581057416
sg19
V(commonIntegerPredicate, schema:name)
p33
sg21
cdedupe.predicates
commonIntegerPredicate
p34
sg23
g24
sbag0
(g14
g2
Ntp35
Rp36
(dp37
g18
I2247904823437745033
sg19
V(nearIntegersPredicate, schema:name)
p38
sg21
cdedupe.predicates
nearIntegersPredicate
p39
sg23
g24
sbag0
(g14
g2
Ntp40
Rp41
(dp42
g18
I-8316477736813899096
sg19
V(firstIntegerPredicate, schema:name)
p43
sg21
cdedupe.predicates
firstIntegerPredicate
p44
sg23
g24
sbag0
(g14
g2
Ntp45
Rp46
(dp47
g18
I2382904336296682620
sg19
V(sameThreeCharStartPredicate, schema:name)
p48
sg21
cdedupe.predicates
sameThreeCharStartPredicate
p49
sg23
g24
sbag0
(g14
g2
Ntp50
Rp51
(dp52
g18
I-3643695239147842937
sg19
V(sameFiveCharStartPredicate, schema:name)
p53
sg21
cdedupe.predicates
sameFiveCharStartPredicate
p54
sg23
g24
sbag0
(g14
g2
Ntp55
Rp56
(dp57
g18
I6880554632897917039
sg19
V(sameSevenCharStartPredicate, schema:name)
p58
sg21
cdedupe.predicates
sameSevenCharStartPredicate
p59
sg23
g24
sbag0
(g14
g2
Ntp60
Rp61
(dp62
g18
I-6936241868338590320
sg19
V(commonTwoTokens, schema:name)
p63
sg21
cdedupe.predicates
commonTwoTokens
p64
sg23
g24
sbag0
(g14
g2
Ntp65
Rp66
(dp67
g18
I-148373383311554540
sg19
V(commonThreeTokens, schema:name)
p68
sg21
cdedupe.predicates
commonThreeTokens
p69
sg23
g24
sbag0
(g14
g2
Ntp70
Rp71
(dp72
g18
I-2739675935124656947
sg19
V(fingerprint, schema:name)
p73
sg21
cdedupe.predicates
fingerprint
p74
sg23
g24
sbag0
(g14
g2
Ntp75
Rp76
(dp77
g18
I-544023587527010675
sg19
V(oneGramFingerprint, schema:name)
p78
sg21
cdedupe.predicates
oneGramFingerprint
p79
sg23
g24
sbag0
(g14
g2
Ntp80
Rp81
(dp82
g18
I-1080185634730547701
sg19
V(twoGramFingerprint, schema:name)
p83
sg21
cdedupe.predicates
twoGramFingerprint
p84
sg23
g24
sbag0
(g14
g2
Ntp85
Rp86
(dp87
g18
I-6003494223893894003
sg19
V(sortedAcronym, schema:name)
p88
sg21
cdedupe.predicates
sortedAcronym
p89
sg23
g24
sbag0
(g14
g2
Ntp90
Rp91
(dp92
g18
I6845418216211155880
sg19
V(commonFourGram, schema:name)
p93
sg21
cdedupe.predicates
commonFourGram
p94
sg23
g24
sbag0
(g14
g2
Ntp95
Rp96
(dp97
g18
I-5836960640880537173
sg19
V(commonSixGram, schema:name)
p98
sg21
cdedupe.predicates
commonSixGram
p99
sg23
g24
sbag0
(g14
g2
Ntp100
Rp101
(dp102
g18
I8693960960109514021
sg19
V(tokenFieldPredicate, schema:name)
p103
sg21
cdedupe.predicates
tokenFieldPredicate
p104
sg23
g24
sbag0
(g14
g2
Ntp105
Rp106
(dp107
g18
I9164942571146333143
sg19
V(suffixArray, schema:name)
p108
sg21
cdedupe.predicates
suffixArray
p109
sg23
g24
sbag0
(g14
g2
Ntp110
Rp111
(dp112
g18
I-88803450883596675
sg19
V(doubleMetaphone, schema:name)
p113
sg21
cdedupe.predicates
doubleMetaphone
p114
sg23
g24
sbag0
(g14
g2
Ntp115
Rp116
(dp117
g18
I-571286937944019986
sg19
V(metaphoneToken, schema:name)
p118
sg21
cdedupe.predicates
metaphoneToken
p119
sg23
g24
sbag0
(cdedupe.predicates
TfidfNGramCanopyPredicate
p120
g2
Ntp121
Rp122
(dp123
S'threshold'
p124
F0.2
sg19
V(0.2, schema:name)
p125
sg23
g24
sbag0
(g120
g2
Ntp126
Rp127
(dp128
g124
F0.4
sg19
V(0.4, schema:name)
p129
sg23
g24
sbag0
(g120
g2
Ntp130
Rp131
(dp132
g124
F0.6
sg19
V(0.6, schema:name)
p133
sg23
g24
sbag0
(g120
g2
Ntp134
Rp135
(dp136
g124
F0.8
sg19
V(0.8, schema:name)
p137
sg23
g24
sbag0
(cdedupe.predicates
TfidfNGramSearchPredicate
p138
g2
Ntp139
Rp140
(dp141
g124
F0.2
sg19
V(0.2, schema:name)
p142
sg23
g24
sbag0
(g138
g2
Ntp143
Rp144
(dp145
g124
F0.4
sg19
V(0.4, schema:name)
p146
sg23
g24
sbag0
(g138
g2
Ntp147
Rp148
(dp149
g124
F0.6
sg19
V(0.6, schema:name)
p150
sg23
g24
sbag0
(g138
g2
Ntp151
Rp152
(dp153
g124
F0.8
sg19
V(0.8, schema:name)
p154
sg23
g24
sbag0
(cdedupe.predicates
TfidfTextCanopyPredicate
p155
g2
Ntp156
Rp157
(dp158
g124
F0.2
sg19
V(0.2, schema:name)
p159
sg23
g24
sbag0
(g155
g2
Ntp160
Rp161
(dp162
g124
F0.4
sg19
V(0.4, schema:name)
p163
sg23
g24
sbag0
(g155
g2
Ntp164
Rp165
(dp166
g124
F0.6
sg19
V(0.6, schema:name)
p167
sg23
g24
sbag0
(g155
g2
Ntp168
Rp169
(dp170
g124
F0.8
sg19
V(0.8, schema:name)
p171
sg23
g24
sbag0
(cdedupe.predicates
TfidfTextSearchPredicate
p172
g2
Ntp173
Rp174
(dp175
g124
F0.2
sg19
V(0.2, schema:name)
p176
sg23
g24
sbag0
(g172
g2
Ntp177
Rp178
(dp179
g124
F0.4
sg19
V(0.4, schema:name)
p180
sg23
g24
sbag0
(g172
g2
Ntp181
Rp182
(dp183
g124
F0.6
sg19
V(0.6, schema:name)
p184
sg23
g24
sbag0
(g172
g2
Ntp185
Rp186
(dp187
g124
F0.8
sg19
V(0.8, schema:name)
p188
sg23
g24
sbasg23
g24
sS'name'
p189
V(schema:name: String)
p190
sS'has_missing'
p191
I00
sS'comparator'
p192
caffinegap.affinegap
normalizedAffineGapDistance
p193
sbag0
(g8
g2
Ntp194
Rp195
(dp196
g12
(lp197
g0
(g14
g2
Ntp198
Rp199
(dp200
g18
I-1155725833308103354
sg19
V(wholeFieldPredicate, schema:birthDate)
p201
sg21
g22
sg23
Vschema:birthDate
p202
sbag0
(g14
g2
Ntp203
Rp204
(dp205
g18
I3452892782540065056
sg19
V(firstTokenPredicate, schema:birthDate)
p206
sg21
g29
sg23
g202
sbag0
(g14
g2
Ntp207
Rp208
(dp209
g18
I-2721352559035530357
sg19
V(commonIntegerPredicate, schema:birthDate)
p210
sg21
g34
sg23
g202
sbag0
(g14
g2
Ntp211
Rp212
(dp213
g18
I8560531273511270164
sg19
V(nearIntegersPredicate, schema:birthDate)
p214
sg21
g39
sg23
g202
sbag0
(g14
g2
Ntp215
Rp216
(dp217
g18
I6275832878304922523
sg19
V(firstIntegerPredicate, schema:birthDate)
p218
sg21
g44
sg23
g202
sbag0
(g14
g2
Ntp219
Rp220
(dp221
g18
I-2408434352138272325
sg19
V(sameThreeCharStartPredicate, schema:birthDate)
p222
sg21
g49
sg23
g202
sbag0
(g14
g2
Ntp223
Rp224
(dp225
g18
I5955819670399214142
sg19
V(sameFiveCharStartPredicate, schema:birthDate)
p226
sg21
g54
sg23
g202
sbag0
(g14
g2
Ntp227
Rp228
(dp229
g18
I-1274155972491625834
sg19
V(sameSevenCharStartPredicate, schema:birthDate)
p230
sg21
g59
sg23
g202
sbag0
(g14
g2
Ntp231
Rp232
(dp233
g18
I3040571126302188151
sg19
V(commonTwoTokens, schema:birthDate)
p234
sg21
g64
sg23
g202
sbag0
(g14
g2
Ntp235
Rp236
(dp237
g18
I-2734944410928122801
sg19
V(commonThreeTokens, schema:birthDate)
p238
sg21
g69
sg23
g202
sbag0
(g14
g2
Ntp239
Rp240
(dp241
g18
I7730180132551672216
sg19
V(fingerprint, schema:birthDate)
p242
sg21
g74
sg23
g202
sbag0
(g14
g2
Ntp243
Rp244
(dp245
g18
I-174061007362871948
sg19
V(oneGramFingerprint, schema:birthDate)
p246
sg21
g79
sg23
g202
sbag0
(g14
g2
Ntp247
Rp248
(dp249
g18
I-3896617803247501910
sg19
V(twoGramFingerprint, schema:birthDate)
p250
sg21
g84
sg23
g202
sbag0
(g14
g2
Ntp251
Rp252
(dp253
g18
I-4095035306844118256
sg19
V(sortedAcronym, schema:birthDate)
p254
sg21
g89
sg23
g202
sbag0
(g14
g2
Ntp255
Rp256
(dp257
g18
I3986235420211639227
sg19
V(commonFourGram, schema:birthDate)
p258
sg21
g94
sg23
g202
sbag0
(g14
g2
Ntp259
Rp260
(dp261
g18
I-4118329341441694278
sg19
V(commonSixGram, schema:birthDate)
p262
sg21
g99
sg23
g202
sbag0
(g14
g2
Ntp263
Rp264
(dp265
g18
I-1411901468756946144
sg19
V(tokenFieldPredicate, schema:birthDate)
p266
sg21
g104
sg23
g202
sbag0
(g14
g2
Ntp267
Rp268
(dp269
g18
I-5303509136723600546
sg19
V(suffixArray, schema:birthDate)
p270
sg21
g109
sg23
g202
sbag0
(g14
g2
Ntp271
Rp272
(dp273
g18
I-7175525638237589856
sg19
V(doubleMetaphone, schema:birthDate)
p274
sg21
g114
sg23
g202
sbag0
(g14
g2
Ntp275
Rp276
(dp277
g18
I6387078253082415921
sg19
V(metaphoneToken, schema:birthDate)
p278
sg21
g119
sg23
g202
sbag0
(g120
g2
Ntp279
Rp280
(dp281
g124
F0.2
sg19
V(0.2, schema:birthDate)
p282
sg23
g202
sbag0
(g120
g2
Ntp283
Rp284
(dp285
g124
F0.4
sg19
V(0.4, schema:birthDate)
p286
sg23
g202
sbag0
(g120
g2
Ntp287
Rp288
(dp289
g124
F0.6
sg19
V(0.6, schema:birthDate)
p290
sg23
g202
sbag0
(g120
g2
Ntp291
Rp292
(dp293
g124
F0.8
sg19
V(0.8, schema:birthDate)
p294
sg23
g202
sbag0
(g138
g2
Ntp295
Rp296
(dp297
g124
F0.2
sg19
V(0.2, schema:birthDate)
p298
sg23
g202
sbag0
(g138
g2
Ntp299
Rp300
(dp301
g124
F0.4
sg19
V(0.4, schema:birthDate)
p302
sg23
g202
sbag0
(g138
g2
Ntp303
Rp304
(dp305
g124
F0.6
sg19
V(0.6, schema:birthDate)
p306
sg23
g202
sbag0
(g138
g2
Ntp307
Rp308
(dp309
g124
F0.8
sg19
V(0.8, schema:birthDate)
p310
sg23
g202
sbag0
(g155
g2
Ntp311
Rp312
(dp313
g124
F0.2
sg19
V(0.2, schema:birthDate)
p314
sg23
g202
sbag0
(g155
g2
Ntp315
Rp316
(dp317
g124
F0.4
sg19
V(0.4, schema:birthDate)
p318
sg23
g202
sbag0
(g155
g2
Ntp319
Rp320
(dp321
g124
F0.6
sg19
V(0.6, schema:birthDate)
p322
sg23
g202
sbag0
(g155
g2
Ntp323
Rp324
(dp325
g124
F0.8
sg19
V(0.8, schema:birthDate)
p326
sg23
g202
sbag0
(g172
g2
Ntp327
Rp328
(dp329
g124
F0.2
sg19
V(0.2, schema:birthDate)
p330
sg23
g202
sbag0
(g172
g2
Ntp331
Rp332
(dp333
g124
F0.4
sg19
V(0.4, schema:birthDate)
p334
sg23
g202
sbag0
(g172
g2
Ntp335
Rp336
(dp337
g124
F0.6
sg19
V(0.6, schema:birthDate)
p338
sg23
g202
sbag0
(g172
g2
Ntp339
Rp340
(dp341
g124
F0.8
sg19
V(0.8, schema:birthDate)
p342
sg23
g202
sbag0
(cdedupe.predicates
ExistsPredicate
p343
g2
Ntp344
Rp345
(dp346
g18
I-292894128929892885
sg19
V(Exists, schema:birthDate)
p347
sg23
g202
sbasg23
g202
sg189
V(schema:birthDate: String)
p348
sg191
I01
sg192
g193
sbag0
(g8
g2
Ntp349
Rp350
(dp351
g12
(lp352
g0
(g14
g2
Ntp353
Rp354
(dp355
g18
I-469449050804757135
sg19
V(wholeFieldPredicate, schema:deathDate)
p356
sg21
g22
sg23
Vschema:deathDate
p357
sbag0
(g14
g2
Ntp358
Rp359
(dp360
g18
I-3171085712832175373
sg19
V(firstTokenPredicate, schema:deathDate)
p361
sg21
g29
sg23
g357
sbag0
(g14
g2
Ntp362
Rp363
(dp364
g18
I-2297221620531467192
sg19
V(commonIntegerPredicate, schema:deathDate)
p365
sg21
g34
sg23
g357
sbag0
(g14
g2
Ntp366
Rp367
(dp368
g18
I-3797907102374790237
sg19
V(nearIntegersPredicate, schema:deathDate)
p369
sg21
g39
sg23
g357
sbag0
(g14
g2
Ntp370
Rp371
(dp372
g18
I328398816629374588
sg19
V(firstIntegerPredicate, schema:deathDate)
p373
sg21
g44
sg23
g357
sbag0
(g14
g2
Ntp374
Rp375
(dp376
g18
I8542007465172206880
sg19
V(sameThreeCharStartPredicate, schema:deathDate)
p377
sg21
g49
sg23
g357
sbag0
(g14
g2
Ntp378
Rp379
(dp380
g18
I5415309765761657753
sg19
V(sameFiveCharStartPredicate, schema:deathDate)
p381
sg21
g54
sg23
g357
sbag0
(g14
g2
Ntp382
Rp383
(dp384
g18
I-8139059078412166895
sg19
V(sameSevenCharStartPredicate, schema:deathDate)
p385
sg21
g59
sg23
g357
sbag0
(g14
g2
Ntp386
Rp387
(dp388
g18
I-3127050453211528212
sg19
V(commonTwoTokens, schema:deathDate)
p389
sg21
g64
sg23
g357
sbag0
(g14
g2
Ntp390
Rp391
(dp392
g18
I-5521148643059042088
sg19
V(commonThreeTokens, schema:deathDate)
p393
sg21
g69
sg23
g357
sbag0
(g14
g2
Ntp394
Rp395
(dp396
g18
I7649930022161686859
sg19
V(fingerprint, schema:deathDate)
p397
sg21
g74
sg23
g357
sbag0
(g14
g2
Ntp398
Rp399
(dp400
g18
I-6341682586876588305
sg19
V(oneGramFingerprint, schema:deathDate)
p401
sg21
g79
sg23
g357
sbag0
(g14
g2
Ntp402
Rp403
(dp404
g18
I-2789672350194497051
sg19
V(twoGramFingerprint, schema:deathDate)
p405
sg21
g84
sg23
g357
sbag0
(g14
g2
Ntp406
Rp407
(dp408
g18
I-7296446380810119569
sg19
V(sortedAcronym, schema:deathDate)
p409
sg21
g89
sg23
g357
sbag0
(g14
g2
Ntp410
Rp411
(dp412
g18
I5984626220198800616
sg19
V(commonFourGram, schema:deathDate)
p413
sg21
g94
sg23
g357
sbag0
(g14
g2
Ntp414
Rp415
(dp416
g18
I-2119938541454532887
sg19
V(commonSixGram, schema:deathDate)
p417
sg21
g99
sg23
g357
sbag0
(g14
g2
Ntp418
Rp419
(dp420
g18
I-8035879964129186573
sg19
V(tokenFieldPredicate, schema:deathDate)
p421
sg21
g104
sg23
g357
sbag0
(g14
g2
Ntp422
Rp423
(dp424
g18
I-2403583709294012695
sg19
V(suffixArray, schema:deathDate)
p425
sg21
g109
sg23
g357
sbag0
(g14
g2
Ntp426
Rp427
(dp428
g18
I4473861165778879027
sg19
V(doubleMetaphone, schema:deathDate)
p429
sg21
g114
sg23
g357
sbag0
(g14
g2
Ntp430
Rp431
(dp432
g18
I6340222309340687374
sg19
V(metaphoneToken, schema:deathDate)
p433
sg21
g119
sg23
g357
sbag0
(g120
g2
Ntp434
Rp435
(dp436
g124
F0.2
sg19
V(0.2, schema:deathDate)
p437
sg23
g357
sbag0
(g120
g2
Ntp438
Rp439
(dp440
g124
F0.4
sg19
V(0.4, schema:deathDate)
p441
sg23
g357
sbag0
(g120
g2
Ntp442
Rp443
(dp444
g124
F0.6
sg19
V(0.6, schema:deathDate)
p445
sg23
g357
sbag0
(g120
g2
Ntp446
Rp447
(dp448
g124
F0.8
sg19
V(0.8, schema:deathDate)
p449
sg23
g357
sbag0
(g138
g2
Ntp450
Rp451
(dp452
g124
F0.2
sg19
V(0.2, schema:deathDate)
p453
sg23
g357
sbag0
(g138
g2
Ntp454
Rp455
(dp456
g124
F0.4
sg19
V(0.4, schema:deathDate)
p457
sg23
g357
sbag0
(g138
g2
Ntp458
Rp459
(dp460
g124
F0.6
sg19
V(0.6, schema:deathDate)
p461
sg23
g357
sbag0
(g138
g2
Ntp462
Rp463
(dp464
g124
F0.8
sg19
V(0.8, schema:deathDate)
p465
sg23
g357
sbag0
(g155
g2
Ntp466
Rp467
(dp468
g124
F0.2
sg19
V(0.2, schema:deathDate)
p469
sg23
g357
sbag0
(g155
g2
Ntp470
Rp471
(dp472
g124
F0.4
sg19
V(0.4, schema:deathDate)
p473
sg23
g357
sbag0
(g155
g2
Ntp474
Rp475
(dp476
g124
F0.6
sg19
V(0.6, schema:deathDate)
p477
sg23
g357
sbag0
(g155
g2
Ntp478
Rp479
(dp480
g124
F0.8
sg19
V(0.8, schema:deathDate)
p481
sg23
g357
sbag0
(g172
g2
Ntp482
Rp483
(dp484
g124
F0.2
sg19
V(0.2, schema:deathDate)
p485
sg23
g357
sbag0
(g172
g2
Ntp486
Rp487
(dp488
g124
F0.4
sg19
V(0.4, schema:deathDate)
p489
sg23
g357
sbag0
(g172
g2
Ntp490
Rp491
(dp492
g124
F0.6
sg19
V(0.6, schema:deathDate)
p493
sg23
g357
sbag0
(g172
g2
Ntp494
Rp495
(dp496
g124
F0.8
sg19
V(0.8, schema:deathDate)
p497
sg23
g357
sbag0
(g343
g2
Ntp498
Rp499
(dp500
g18
I6675221196348428488
sg19
V(Exists, schema:deathDate)
p501
sg23
g357
sbasg23
g357
sg189
V(schema:deathDate: String)
p502
sg191
I01
sg192
g193
sbasS'_variables'
p503
(lp504
g10
ag195
ag350
ag0
(cdedupe.variables.base
MissingDataType
p505
g2
Ntp506
Rp507
(dp508
g189
V((schema:birthDate: String): Not Missing)
p509
sg191
I00
sbag0
(g505
g2
Ntp510
Rp511
(dp512
g189
V((schema:deathDate: String): Not Missing)
p513
sg191
I00
sbasS'_missing_field_indices'
p514
(lp515
I1
aI2
asS'_derived_start'
p516
I3
sS'_interaction_indices'
p517
(lp518
sb.ccopy_reg
_reconstructor
p0
(crlr.lr
RegularizedLogisticRegression
p1
c__builtin__
object
p2
Ntp3
Rp4
(dp5
S'alpha'
p6
F0.1
sS'bias'
p7
cnumpy.core.multiarray
scalar
p8
(cnumpy
dtype
p9
(S'f8'
p10
I0
I1
tp11
Rp12
(I3
S'<'
p13
NNNI-1
I-1
I0
tp14
bS'\xa3P\xf7TjN#@'
p15
tp16
Rp17
sS'num_cores'
p18
I0
sS'cv'
p19
I3
sS'weights'
p20
cnumpy.core.multiarray
_reconstruct
p21
(cnumpy
ndarray
p22
(I0
tp23
S'b'
p24
tp25
Rp26
(I1
(I5
tp27
g12
I00
S'Ef\xeb\x7f\xc3\xcc\t\xc0.`\xe5<EB\xea\xbf{\x1a\x91\x14\xc1\x87\x01\xc0\x04\xbd5\x00\xb0\x11\x03?\x04\xbd5\x00\xb0\x11\x03?'
p28
tp29
bsb.(ccopy_reg
_reconstructor
p0
(cdedupe.predicates
CompoundPredicate
p1
c__builtin__
tuple
p2
(g0
(cdedupe.predicates
StringPredicate
p3
c__builtin__
object
p4
Ntp5
Rp6
(dp7
S'_cached_hash'
p8
I3986235420211639227
sS'__name__'
p9
V(commonFourGram, schema:birthDate)
p10
sS'func'
p11
cdedupe.predicates
commonFourGram
p12
sS'field'
p13
Vschema:birthDate
p14
sbg0
(g3
g4
Ntp15
Rp16
(dp17
g8
I-6341682586876588305
sg9
V(oneGramFingerprint, schema:deathDate)
p18
sg11
cdedupe.predicates
oneGramFingerprint
p19
sg13
Vschema:deathDate
p20
sbtp21
tp22
Rp23
tp24
.